target datalayout = "e-m:e-p270:32:32-p271:32:32-p272:64:64-i64:64-i128:128-f80:128-n8:16:32:64-S128"
target triple = "x86_64-pc-linux-gnu"

%struct.ImVec2 = type { float, float }
%struct.ImVec4 = type { float, float, float, float }
%struct.ImVector = type { i32, i32, ptr }
%struct.ImDrawList = type { %struct.ImVector.0, %struct.ImVector.1, %struct.ImVector.2, i32, i32, ptr, ptr, ptr, %struct.ImVector, %struct.ImDrawCmdHeader, %struct.ImDrawListSplitter, %struct.ImVector.4, %struct.ImVector.5, %struct.ImVector.6, float, ptr }
%struct.ImVector.0 = type { i32, i32, ptr }
%struct.ImVector.1 = type { i32, i32, ptr }
%struct.ImVector.2 = type { i32, i32, ptr }
%struct.ImDrawCmdHeader = type <{ %struct.ImVec4, i64, i32, [4 x i8] }>
%struct.ImDrawListSplitter = type { i32, i32, %struct.ImVector.3 }
%struct.ImVector.3 = type { i32, i32, ptr }
%struct.ImVector.4 = type { i32, i32, ptr }
%struct.ImVector.5 = type { i32, i32, ptr }
%struct.ImVector.6 = type { i32, i32, ptr }
%struct.ImDrawVert = type { %struct.ImVec2, %struct.ImVec2, i32 }

; Function Attrs: mustprogress nounwind uwtable
define linkonce_odr void @_ZN6ImVec2C2Eff(ptr noundef nonnull align 4 dereferenceable(8) %0, float noundef %1, float noundef %2) unnamed_addr #3 comdat align 2 {
  %4 = alloca ptr, align 8
  %5 = alloca float, align 4
  %6 = alloca float, align 4
  store ptr %0, ptr %4, align 8, !tbaa !33
  store float %1, ptr %5, align 4, !tbaa !11
  store float %2, ptr %6, align 4, !tbaa !11
  %7 = load ptr, ptr %4, align 8
  %8 = getelementptr inbounds nuw %struct.ImVec2, ptr %7, i32 0, i32 0
  %9 = load float, ptr %5, align 4, !tbaa !11
  store float %9, ptr %8, align 4, !tbaa !34
  %10 = getelementptr inbounds nuw %struct.ImVec2, ptr %7, i32 0, i32 1
  %11 = load float, ptr %6, align 4, !tbaa !11
  store float %11, ptr %10, align 4, !tbaa !35
  ret void
}

; Function Attrs: inlinehint mustprogress nounwind uwtable
define internal noundef float @_ZL7ImClampIfET_S0_S0_S0_(float noundef %0, float noundef %1, float noundef %2) #7 {
  %4 = alloca float, align 4
  %5 = alloca float, align 4
  %6 = alloca float, align 4
  store float %0, ptr %4, align 4, !tbaa !11
  store float %1, ptr %5, align 4, !tbaa !11
  store float %2, ptr %6, align 4, !tbaa !11
  %7 = load float, ptr %4, align 4, !tbaa !11
  %8 = load float, ptr %5, align 4, !tbaa !11
  %9 = fcmp olt float %7, %8
  br i1 %9, label %10, label %12

10:                                               ; preds = %3
  %11 = load float, ptr %5, align 4, !tbaa !11
  br label %22

12:                                               ; preds = %3
  %13 = load float, ptr %4, align 4, !tbaa !11
  %14 = load float, ptr %6, align 4, !tbaa !11
  %15 = fcmp ogt float %13, %14
  br i1 %15, label %16, label %18

16:                                               ; preds = %12
  %17 = load float, ptr %6, align 4, !tbaa !11
  br label %20

18:                                               ; preds = %12
  %19 = load float, ptr %4, align 4, !tbaa !11
  br label %20

20:                                               ; preds = %18, %16
  %21 = phi float [ %17, %16 ], [ %19, %18 ]
  br label %22

22:                                               ; preds = %20, %10
  %23 = phi float [ %11, %10 ], [ %21, %20 ]
  ret float %23
}

; Function Attrs: inlinehint mustprogress nounwind uwtable
define internal noundef float @_ZL5ImDotRK6ImVec2S1_(ptr noundef nonnull align 4 dereferenceable(8) %0, ptr noundef nonnull align 4 dereferenceable(8) %1) #7 {
  %3 = alloca ptr, align 8
  %4 = alloca ptr, align 8
  store ptr %0, ptr %3, align 8, !tbaa !33
  store ptr %1, ptr %4, align 8, !tbaa !33
  %5 = load ptr, ptr %3, align 8, !tbaa !33
  %6 = getelementptr inbounds nuw %struct.ImVec2, ptr %5, i32 0, i32 0
  %7 = load float, ptr %6, align 4, !tbaa !34
  %8 = load ptr, ptr %4, align 8, !tbaa !33
  %9 = getelementptr inbounds nuw %struct.ImVec2, ptr %8, i32 0, i32 0
  %10 = load float, ptr %9, align 4, !tbaa !34
  %11 = load ptr, ptr %3, align 8, !tbaa !33
  %12 = getelementptr inbounds nuw %struct.ImVec2, ptr %11, i32 0, i32 1
  %13 = load float, ptr %12, align 4, !tbaa !35
  %14 = load ptr, ptr %4, align 8, !tbaa !33
  %15 = getelementptr inbounds nuw %struct.ImVec2, ptr %14, i32 0, i32 1
  %16 = load float, ptr %15, align 4, !tbaa !35
  %17 = fmul float %13, %16
  %18 = call float @llvm.fmuladd.f32(float %7, float %10, float %17)
  ret float %18
}

; Function Attrs: inlinehint mustprogress nounwind uwtable
define internal noundef float @_ZL11ImLengthSqrRK6ImVec2(ptr noundef nonnull align 4 dereferenceable(8) %0) #7 {
  %2 = alloca ptr, align 8
  store ptr %0, ptr %2, align 8, !tbaa !33
  %3 = load ptr, ptr %2, align 8, !tbaa !33
  %4 = getelementptr inbounds nuw %struct.ImVec2, ptr %3, i32 0, i32 0
  %5 = load float, ptr %4, align 4, !tbaa !34
  %6 = load ptr, ptr %2, align 8, !tbaa !33
  %7 = getelementptr inbounds nuw %struct.ImVec2, ptr %6, i32 0, i32 0
  %8 = load float, ptr %7, align 4, !tbaa !34
  %9 = load ptr, ptr %2, align 8, !tbaa !33
  %10 = getelementptr inbounds nuw %struct.ImVec2, ptr %9, i32 0, i32 1
  %11 = load float, ptr %10, align 4, !tbaa !35
  %12 = load ptr, ptr %2, align 8, !tbaa !33
  %13 = getelementptr inbounds nuw %struct.ImVec2, ptr %12, i32 0, i32 1
  %14 = load float, ptr %13, align 4, !tbaa !35
  %15 = fmul float %11, %14
  %16 = call float @llvm.fmuladd.f32(float %5, float %8, float %15)
  ret float %16
}

; Function Attrs: inlinehint mustprogress uwtable
define internal <2 x float> @_ZmiRK6ImVec2S1_(ptr noundef nonnull align 4 dereferenceable(8) %0, ptr noundef nonnull align 4 dereferenceable(8) %1) #14 {
  %3 = alloca %struct.ImVec2, align 4
  %4 = alloca ptr, align 8
  %5 = alloca ptr, align 8
  store ptr %0, ptr %4, align 8, !tbaa !33
  store ptr %1, ptr %5, align 8, !tbaa !33
  %6 = load ptr, ptr %4, align 8, !tbaa !33
  %7 = getelementptr inbounds nuw %struct.ImVec2, ptr %6, i32 0, i32 0
  %8 = load float, ptr %7, align 4, !tbaa !34
  %9 = load ptr, ptr %5, align 8, !tbaa !33
  %10 = getelementptr inbounds nuw %struct.ImVec2, ptr %9, i32 0, i32 0
  %11 = load float, ptr %10, align 4, !tbaa !34
  %12 = fsub float %8, %11
  %13 = load ptr, ptr %4, align 8, !tbaa !33
  %14 = getelementptr inbounds nuw %struct.ImVec2, ptr %13, i32 0, i32 1
  %15 = load float, ptr %14, align 4, !tbaa !35
  %16 = load ptr, ptr %5, align 8, !tbaa !33
  %17 = getelementptr inbounds nuw %struct.ImVec2, ptr %16, i32 0, i32 1
  %18 = load float, ptr %17, align 4, !tbaa !35
  %19 = fsub float %15, %18
  call void @_ZN6ImVec2C2Eff(ptr noundef nonnull align 4 dereferenceable(8) %3, float noundef %12, float noundef %19)
  %20 = load <2 x float>, ptr %3, align 4
  ret <2 x float> %20
}

; Function Attrs: mustprogress uwtable
define void @_ZN5ImGui38ShadeVertsLinearColorGradientKeepAlphaEP10ImDrawListii6ImVec2S2_jj(ptr noundef %0, i32 noundef %1, i32 noundef %2, <2 x float> %3, <2 x float> %4, i32 noundef %5, i32 noundef %6) #0 {
  %8 = alloca %struct.ImVec2, align 4
  %9 = alloca %struct.ImVec2, align 4
  %10 = alloca ptr, align 8
  %11 = alloca i32, align 4
  %12 = alloca i32, align 4
  %13 = alloca i32, align 4
  %14 = alloca i32, align 4
  %15 = alloca %struct.ImVec2, align 4
  %16 = alloca float, align 4
  %17 = alloca ptr, align 8
  %18 = alloca ptr, align 8
  %19 = alloca i32, align 4
  %20 = alloca i32, align 4
  %21 = alloca i32, align 4
  %22 = alloca i32, align 4
  %23 = alloca i32, align 4
  %24 = alloca i32, align 4
  %25 = alloca ptr, align 8
  %26 = alloca float, align 4
  %27 = alloca %struct.ImVec2, align 4
  %28 = alloca float, align 4
  %29 = alloca i32, align 4
  %30 = alloca i32, align 4
  %31 = alloca i32, align 4
  store <2 x float> %3, ptr %8, align 4
  store <2 x float> %4, ptr %9, align 4
  store ptr %0, ptr %10, align 8, !tbaa !43
  store i32 %1, ptr %11, align 4, !tbaa !27
  store i32 %2, ptr %12, align 4, !tbaa !27
  store i32 %5, ptr %13, align 4, !tbaa !27
  store i32 %6, ptr %14, align 4, !tbaa !27
  call void @llvm.lifetime.start.p0(i64 8, ptr %15) #17
  %32 = call <2 x float> @_ZmiRK6ImVec2S1_(ptr noundef nonnull align 4 dereferenceable(8) %9, ptr noundef nonnull align 4 dereferenceable(8) %8)
  store <2 x float> %32, ptr %15, align 4
  call void @llvm.lifetime.start.p0(i64 4, ptr %16) #17
  %33 = call noundef float @_ZL11ImLengthSqrRK6ImVec2(ptr noundef nonnull align 4 dereferenceable(8) %15)
  %34 = fdiv float 1.000000e+00, %33
  store float %34, ptr %16, align 4, !tbaa !11
  call void @llvm.lifetime.start.p0(i64 8, ptr %17) #17
  %35 = load ptr, ptr %10, align 8, !tbaa !43
  %36 = getelementptr inbounds nuw %struct.ImDrawList, ptr %35, i32 0, i32 2
  %37 = getelementptr inbounds nuw %struct.ImVector.2, ptr %36, i32 0, i32 2
  %38 = load ptr, ptr %37, align 8, !tbaa !155
  %39 = load i32, ptr %11, align 4, !tbaa !27
  %40 = sext i32 %39 to i64
  %41 = getelementptr inbounds %struct.ImDrawVert, ptr %38, i64 %40
  store ptr %41, ptr %17, align 8, !tbaa !199
  call void @llvm.lifetime.start.p0(i64 8, ptr %18) #17
  %42 = load ptr, ptr %10, align 8, !tbaa !43
  %43 = getelementptr inbounds nuw %struct.ImDrawList, ptr %42, i32 0, i32 2
  %44 = getelementptr inbounds nuw %struct.ImVector.2, ptr %43, i32 0, i32 2
  %45 = load ptr, ptr %44, align 8, !tbaa !155
  %46 = load i32, ptr %12, align 4, !tbaa !27
  %47 = sext i32 %46 to i64
  %48 = getelementptr inbounds %struct.ImDrawVert, ptr %45, i64 %47
  store ptr %48, ptr %18, align 8, !tbaa !199
  call void @llvm.lifetime.start.p0(i64 4, ptr %19) #17
  %49 = load i32, ptr %13, align 4, !tbaa !27
  %50 = lshr i32 %49, 0
  %51 = and i32 %50, 255
  store i32 %51, ptr %19, align 4, !tbaa !27
  call void @llvm.lifetime.start.p0(i64 4, ptr %20) #17
  %52 = load i32, ptr %13, align 4, !tbaa !27
  %53 = lshr i32 %52, 8
  %54 = and i32 %53, 255
  store i32 %54, ptr %20, align 4, !tbaa !27
  call void @llvm.lifetime.start.p0(i64 4, ptr %21) #17
  %55 = load i32, ptr %13, align 4, !tbaa !27
  %56 = lshr i32 %55, 16
  %57 = and i32 %56, 255
  store i32 %57, ptr %21, align 4, !tbaa !27
  call void @llvm.lifetime.start.p0(i64 4, ptr %22) #17
  %58 = load i32, ptr %14, align 4, !tbaa !27
  %59 = lshr i32 %58, 0
  %60 = and i32 %59, 255
  %61 = load i32, ptr %19, align 4, !tbaa !27
  %62 = sub nsw i32 %60, %61
  store i32 %62, ptr %22, align 4, !tbaa !27
  call void @llvm.lifetime.start.p0(i64 4, ptr %23) #17
  %63 = load i32, ptr %14, align 4, !tbaa !27
  %64 = lshr i32 %63, 8
  %65 = and i32 %64, 255
  %66 = load i32, ptr %20, align 4, !tbaa !27
  %67 = sub nsw i32 %65, %66
  store i32 %67, ptr %23, align 4, !tbaa !27
  call void @llvm.lifetime.start.p0(i64 4, ptr %24) #17
  %68 = load i32, ptr %14, align 4, !tbaa !27
  %69 = lshr i32 %68, 16
  %70 = and i32 %69, 255
  %71 = load i32, ptr %21, align 4, !tbaa !27
  %72 = sub nsw i32 %70, %71
  store i32 %72, ptr %24, align 4, !tbaa !27
  call void @llvm.lifetime.start.p0(i64 8, ptr %25) #17
  %73 = load ptr, ptr %17, align 8, !tbaa !199
  store ptr %73, ptr %25, align 8, !tbaa !199
  br label %74

74:                                               ; preds = %124, %7
  %75 = load ptr, ptr %25, align 8, !tbaa !199
  %76 = load ptr, ptr %18, align 8, !tbaa !199
  %77 = icmp ult ptr %75, %76
  br i1 %77, label %79, label %78

78:                                               ; preds = %74
  call void @llvm.lifetime.end.p0(i64 8, ptr %25) #17
  br label %127

79:                                               ; preds = %74
  call void @llvm.lifetime.start.p0(i64 4, ptr %26) #17
  call void @llvm.lifetime.start.p0(i64 8, ptr %27) #17
  %80 = load ptr, ptr %25, align 8, !tbaa !199
  %81 = getelementptr inbounds nuw %struct.ImDrawVert, ptr %80, i32 0, i32 0
  %82 = call <2 x float> @_ZmiRK6ImVec2S1_(ptr noundef nonnull align 4 dereferenceable(8) %81, ptr noundef nonnull align 4 dereferenceable(8) %8)
  store <2 x float> %82, ptr %27, align 4
  %83 = call noundef float @_ZL5ImDotRK6ImVec2S1_(ptr noundef nonnull align 4 dereferenceable(8) %27, ptr noundef nonnull align 4 dereferenceable(8) %15)
  call void @llvm.lifetime.end.p0(i64 8, ptr %27) #17
  store float %83, ptr %26, align 4, !tbaa !11
  call void @llvm.lifetime.start.p0(i64 4, ptr %28) #17
  %84 = load float, ptr %26, align 4, !tbaa !11
  %85 = load float, ptr %16, align 4, !tbaa !11
  %86 = fmul float %84, %85
  %87 = call noundef float @_ZL7ImClampIfET_S0_S0_S0_(float noundef %86, float noundef 0.000000e+00, float noundef 1.000000e+00)
  store float %87, ptr %28, align 4, !tbaa !11
  call void @llvm.lifetime.start.p0(i64 4, ptr %29) #17
  %88 = load i32, ptr %19, align 4, !tbaa !27
  %89 = sitofp i32 %88 to float
  %90 = load i32, ptr %22, align 4, !tbaa !27
  %91 = sitofp i32 %90 to float
  %92 = load float, ptr %28, align 4, !tbaa !11
  %93 = call float @llvm.fmuladd.f32(float %91, float %92, float %89)
  %94 = fptosi float %93 to i32
  store i32 %94, ptr %29, align 4, !tbaa !27
  call void @llvm.lifetime.start.p0(i64 4, ptr %30) #17
  %95 = load i32, ptr %20, align 4, !tbaa !27
  %96 = sitofp i32 %95 to float
  %97 = load i32, ptr %23, align 4, !tbaa !27
  %98 = sitofp i32 %97 to float
  %99 = load float, ptr %28, align 4, !tbaa !11
  %100 = call float @llvm.fmuladd.f32(float %98, float %99, float %96)
  %101 = fptosi float %100 to i32
  store i32 %101, ptr %30, align 4, !tbaa !27
  call void @llvm.lifetime.start.p0(i64 4, ptr %31) #17
  %102 = load i32, ptr %21, align 4, !tbaa !27
  %103 = sitofp i32 %102 to float
  %104 = load i32, ptr %24, align 4, !tbaa !27
  %105 = sitofp i32 %104 to float
  %106 = load float, ptr %28, align 4, !tbaa !11
  %107 = call float @llvm.fmuladd.f32(float %105, float %106, float %103)
  %108 = fptosi float %107 to i32
  store i32 %108, ptr %31, align 4, !tbaa !27
  %109 = load i32, ptr %29, align 4, !tbaa !27
  %110 = shl i32 %109, 0
  %111 = load i32, ptr %30, align 4, !tbaa !27
  %112 = shl i32 %111, 8
  %113 = or i32 %110, %112
  %114 = load i32, ptr %31, align 4, !tbaa !27
  %115 = shl i32 %114, 16
  %116 = or i32 %113, %115
  %117 = load ptr, ptr %25, align 8, !tbaa !199
  %118 = getelementptr inbounds nuw %struct.ImDrawVert, ptr %117, i32 0, i32 2
  %119 = load i32, ptr %118, align 4, !tbaa !158
  %120 = and i32 %119, -16777216
  %121 = or i32 %116, %120
  %122 = load ptr, ptr %25, align 8, !tbaa !199
  %123 = getelementptr inbounds nuw %struct.ImDrawVert, ptr %122, i32 0, i32 2
  store i32 %121, ptr %123, align 4, !tbaa !158
  call void @llvm.lifetime.end.p0(i64 4, ptr %31) #17
  call void @llvm.lifetime.end.p0(i64 4, ptr %30) #17
  call void @llvm.lifetime.end.p0(i64 4, ptr %29) #17
  call void @llvm.lifetime.end.p0(i64 4, ptr %28) #17
  call void @llvm.lifetime.end.p0(i64 4, ptr %26) #17
  br label %124

124:                                              ; preds = %79
  %125 = load ptr, ptr %25, align 8, !tbaa !199
  %126 = getelementptr inbounds nuw %struct.ImDrawVert, ptr %125, i32 1
  store ptr %126, ptr %25, align 8, !tbaa !199
  br label %74, !llvm.loop !287

127:                                              ; preds = %78
  call void @llvm.lifetime.end.p0(i64 4, ptr %24) #17
  call void @llvm.lifetime.end.p0(i64 4, ptr %23) #17
  call void @llvm.lifetime.end.p0(i64 4, ptr %22) #17
  call void @llvm.lifetime.end.p0(i64 4, ptr %21) #17
  call void @llvm.lifetime.end.p0(i64 4, ptr %20) #17
  call void @llvm.lifetime.end.p0(i64 4, ptr %19) #17
  call void @llvm.lifetime.end.p0(i64 8, ptr %18) #17
  call void @llvm.lifetime.end.p0(i64 8, ptr %17) #17
  call void @llvm.lifetime.end.p0(i64 4, ptr %16) #17
  call void @llvm.lifetime.end.p0(i64 8, ptr %15) #17
  ret void
}