; Function Attrs: mustprogress nofree norecurse nosync nounwind memory(readwrite, inaccessiblemem: none) uwtable
define void @_ZN5ImGui38ShadeVertsLinearColorGradientKeepAlphaEP10ImDrawListii6ImVec2S2_jj(ptr noundef readonly captures(none) %0, i32 noundef %1, i32 noundef %2, <2 x float> %3, <2 x float> %4, i32 noundef %5, i32 noundef %6) local_unnamed_addr #22 {
  %.sroa.053.0.vec.extract55 = extractelement <2 x float> %3, i64 0
  %.sroa.053.4.vec.extract57 = extractelement <2 x float> %3, i64 1
  %8 = fsub <2 x float> %4, %3
  %9 = extractelement <2 x float> %8, i64 0
  %10 = fsub <2 x float> %4, %3
  %11 = extractelement <2 x float> %10, i64 1
  %12 = fmul float %11, %11
  %13 = tail call noundef float @llvm.fmuladd.f32(float %9, float %9, float %12)
  %14 = fdiv float 1.000000e+00, %13
  %15 = getelementptr inbounds nuw i8, ptr %0, i64 40
  %16 = load ptr, ptr %15, align 8, !tbaa !112
  %17 = sext i32 %2 to i64
  %18 = getelementptr inbounds %struct.ImDrawVert, ptr %16, i64 %17
  %19 = icmp slt i32 %1, %2
  br i1 %19, label %.lr.ph, label %._crit_edge

.lr.ph:                                           ; preds = %7
  %20 = sext i32 %1 to i64
  %21 = getelementptr inbounds %struct.ImDrawVert, ptr %16, i64 %20
  %22 = lshr i32 %6, 16
  %23 = and i32 %22, 255
  %24 = lshr i32 %5, 16
  %25 = and i32 %24, 255
  %26 = sub nsw i32 %23, %25
  %27 = lshr i32 %6, 8
  %28 = and i32 %27, 255
  %29 = lshr i32 %5, 8
  %30 = and i32 %29, 255
  %31 = sub nsw i32 %28, %30
  %32 = and i32 %6, 255
  %33 = and i32 %5, 255
  %34 = sub nsw i32 %32, %33
  %35 = uitofp nneg i32 %33 to float
  %36 = sitofp i32 %34 to float
  %37 = uitofp nneg i32 %30 to float
  %38 = sitofp i32 %31 to float
  %39 = uitofp nneg i32 %25 to float
  %40 = sitofp i32 %26 to float
  br label %41

._crit_edge:                                      ; preds = %41, %7
  ret void

41:                                               ; preds = %.lr.ph, %41
  %.058 = phi ptr [ %21, %.lr.ph ], [ %66, %41 ]
  %.0.val = load float, ptr %.058, align 4, !tbaa !103
  %42 = getelementptr i8, ptr %.058, i64 4
  %.0.val33 = load float, ptr %42, align 4, !tbaa !104
  %43 = fsub float %.0.val, %.sroa.053.0.vec.extract55
  %44 = fsub float %.0.val33, %.sroa.053.4.vec.extract57
  %45 = fmul float %11, %44
  %46 = tail call noundef float @llvm.fmuladd.f32(float %43, float %9, float %45)
  %47 = fmul float %14, %46
  %48 = fcmp olt float %47, 0.000000e+00
  %49 = fcmp ogt float %47, 1.000000e+00
  %50 = select i1 %49, float 1.000000e+00, float %47
  %51 = select i1 %48, float 0.000000e+00, float %50
  %52 = tail call float @llvm.fmuladd.f32(float %36, float %51, float %35)
  %53 = fptosi float %52 to i32
  %54 = tail call float @llvm.fmuladd.f32(float %38, float %51, float %37)
  %55 = fptosi float %54 to i32
  %56 = tail call float @llvm.fmuladd.f32(float %40, float %51, float %39)
  %57 = fptosi float %56 to i32
  %58 = shl i32 %55, 8
  %59 = shl i32 %57, 16
  %60 = getelementptr inbounds nuw i8, ptr %.058, i64 16
  %61 = load i32, ptr %60, align 4, !tbaa !116
  %62 = and i32 %61, -16777216
  %63 = or i32 %62, %53
  %64 = or i32 %63, %58
  %65 = or i32 %64, %59
  store i32 %65, ptr %60, align 4, !tbaa !116
  %66 = getelementptr inbounds nuw i8, ptr %.058, i64 20
  %67 = icmp ult ptr %66, %18
  br i1 %67, label %41, label %._crit_edge, !llvm.loop !233
}